; Function Attrs: mustprogress nounwind uwtable
define void @_ZN6icu_7521TimeArrayTimeZoneRuleD2Ev(ptr noundef nonnull align 8 dereferenceable(352) %this) unnamed_addr #3 align 2 personality ptr @__gxx_personality_v0 {
entry:
  store ptr getelementptr inbounds ({ [13 x ptr] }, ptr @_ZTVN6icu_7521TimeArrayTimeZoneRuleE, i64 0, i32 0, i64 2), ptr %this, align 8
  %fStartTimes = getelementptr inbounds i8, ptr %this, i64 88
  %0 = load ptr, ptr %fStartTimes, align 8
  %cmp.not = icmp eq ptr %0, null
  %fLocalStartTimes = getelementptr inbounds i8, ptr %this, i64 96
  %cmp3.not = icmp eq ptr %0, %fLocalStartTimes
  %or.cond = select i1 %cmp.not, i1 true, i1 %cmp3.not
  br i1 %or.cond, label %if.end, label %if.then

if.then:                                          ; preds = %entry
  invoke void @uprv_free_75(ptr noundef nonnull %0)
          to label %if.end unwind label %terminate.lpad

if.end:                                           ; preds = %if.then, %entry
  store ptr getelementptr inbounds ({ [13 x ptr] }, ptr @_ZTVN6icu_7512TimeZoneRuleE, i64 0, i32 0, i64 2), ptr %this, align 8
  %fName.i = getelementptr inbounds i8, ptr %this, i64 8
  tail call void @_ZN6icu_7513UnicodeStringD1Ev(ptr noundef nonnull align 8 dereferenceable(64) %fName.i) #16
  tail call void @_ZN6icu_757UObjectD2Ev(ptr noundef nonnull align 8 dereferenceable(8) %this) #16
  ret void

terminate.lpad:                                   ; preds = %if.then
  %1 = landingpad { ptr, i32 }
          catch ptr null
  %2 = extractvalue { ptr, i32 } %1, 0
  tail call void @__clang_call_terminate(ptr %2) #17
  unreachable
}